target datalayout = "e-m:e-p270:32:32-p271:32:32-p272:64:64-i64:64-i128:128-f80:128-n8:16:32:64-S128"
target triple = "x86_64-unknown-linux-gnu"

; Function Attrs: fn_ret_thunk_extern nounwind null_pointer_is_valid
define dso_local i32 @drm_connector_helper_tv_get_modes(ptr noundef %0) #0 align 16 {
  %2 = alloca [2 x i32], align 4
  %3 = alloca i64, align 8
  %4 = load ptr, ptr %0, align 8
  %5 = getelementptr inbounds i8, ptr %4, i64 1176
  %6 = load ptr, ptr %5, align 8
  call void @llvm.lifetime.start.p0(i64 8, ptr nonnull %2) #6
  store i32 -1, ptr %2, align 4
  %7 = getelementptr inbounds i8, ptr %2, i64 4
  store i32 -1, ptr %7, align 4
  %8 = icmp eq ptr %6, null
  br i1 %8, label %87, label %9

9:                                                ; preds = %1
  %10 = getelementptr inbounds i8, ptr %6, i64 84
  %11 = load i32, ptr %10, align 4
  %12 = icmp eq i32 %11, 0
  br i1 %12, label %27, label %13

13:                                               ; preds = %9
  %14 = getelementptr inbounds i8, ptr %6, i64 88
  %15 = load ptr, ptr %14, align 8
  %16 = zext i32 %11 to i64
  br label %17

17:                                               ; preds = %17, %13
  %18 = phi i64 [ 0, %13 ], [ %25, %17 ]
  %19 = phi i32 [ 0, %13 ], [ %24, %17 ]
  %20 = getelementptr i64, ptr %15, i64 %18
  %21 = load i64, ptr %20, align 8
  %22 = shl nuw i64 1, %21
  %23 = trunc i64 %22 to i32
  %24 = or i32 %19, %23
  %25 = add nuw nsw i64 %18, 1
  %26 = icmp eq i64 %25, %16
  br i1 %26, label %27, label %17, !llvm.loop !52

27:                                               ; preds = %17, %9
  %28 = phi i32 [ 0, %9 ], [ %24, %17 ]
  %29 = and i32 %28, 23
  %30 = icmp eq i32 %29, 0
  %31 = and i32 %28, 104
  %32 = icmp eq i32 %31, 0
  %33 = or i1 %30, %32
  br i1 %33, label %53, label %34

34:                                               ; preds = %27
  call void @llvm.lifetime.start.p0(i64 8, ptr nonnull %3) #6
  store i64 0, ptr %3, align 8, !annotation !7
  %35 = getelementptr inbounds i8, ptr %0, i64 64
  %36 = call i32 @drm_object_property_get_default_value(ptr noundef %35, ptr noundef nonnull %6, ptr noundef nonnull %3) #6
  %37 = icmp eq i32 %36, 0
  br i1 %37, label %38, label %84

38:                                               ; preds = %34
  %39 = getelementptr inbounds i8, ptr %0, i64 1644
  %40 = load i8, ptr %39, align 4, !range !5, !noundef !6
  %41 = icmp eq i8 %40, 0
  br i1 %41, label %46, label %42

42:                                               ; preds = %38
  %43 = getelementptr inbounds i8, ptr %0, i64 1640
  %44 = load i32, ptr %43, align 4
  %45 = zext i32 %44 to i64
  store i64 %45, ptr %3, align 8
  br label %46

46:                                               ; preds = %42, %38
  %47 = load i64, ptr %3, align 8
  %48 = shl nuw i64 1, %47
  %49 = and i64 %48, 23
  %50 = icmp eq i64 %49, 0
  %51 = select i1 %50, i32 3, i32 0
  %52 = select i1 %50, i32 0, i32 3
  store i32 %51, ptr %2, align 4
  store i32 %52, ptr %7, align 4
  call void @llvm.lifetime.end.p0(i64 8, ptr nonnull %3) #6
  br label %57

53:                                               ; preds = %27
  br i1 %30, label %55, label %54

54:                                               ; preds = %53
  store i32 0, ptr %2, align 4
  br label %57

55:                                               ; preds = %53
  br i1 %32, label %87, label %56

56:                                               ; preds = %55
  store i32 3, ptr %2, align 4
  br label %57

57:                                               ; preds = %56, %54, %46
  br label %58

58:                                               ; preds = %81, %57
  %59 = phi i64 [ %82, %81 ], [ 0, %57 ]
  %60 = phi i32 [ %79, %81 ], [ 0, %57 ]
  %61 = getelementptr [2 x i32], ptr %2, i64 0, i64 %59
  %62 = load i32, ptr %61, align 4
  switch i32 %62, label %78 [
    i32 0, label %63
    i32 3, label %65
  ]

63:                                               ; preds = %58
  %64 = call ptr @drm_analog_tv_mode(ptr noundef %4, i32 noundef 0, i64 noundef 13500000, i32 noundef 720, i32 noundef 480, i1 noundef zeroext true) #6
  br label %67

65:                                               ; preds = %58
  %66 = call ptr @drm_analog_tv_mode(ptr noundef %4, i32 noundef 3, i64 noundef 13500000, i32 noundef 720, i32 noundef 576, i1 noundef zeroext true) #6
  br label %67

67:                                               ; preds = %65, %63
  %68 = phi ptr [ %64, %63 ], [ %66, %65 ]
  %69 = icmp eq ptr %68, null
  %70 = trunc i64 %59 to i32
  br i1 %69, label %78, label %71

71:                                               ; preds = %67
  %72 = icmp eq i64 %59, 0
  br i1 %72, label %73, label %77

73:                                               ; preds = %71
  %74 = getelementptr inbounds i8, ptr %68, i64 62
  %75 = load i8, ptr %74, align 2
  %76 = or i8 %75, 8
  store i8 %76, ptr %74, align 2
  br label %77

77:                                               ; preds = %73, %71
  call void @drm_mode_probed_add(ptr noundef %0, ptr noundef nonnull %68) #6
  br label %78

78:                                               ; preds = %77, %67, %58
  %79 = phi i32 [ %60, %77 ], [ %60, %58 ], [ %70, %67 ]
  %80 = phi i32 [ 0, %77 ], [ 5, %58 ], [ 1, %67 ]
  switch i32 %80, label %87 [
    i32 0, label %81
    i32 5, label %85
  ]

81:                                               ; preds = %78
  %82 = add nuw nsw i64 %59, 1
  %83 = icmp eq i64 %59, 0
  br i1 %83, label %58, label %87, !llvm.loop !53

84:                                               ; preds = %34
  call void @llvm.lifetime.end.p0(i64 8, ptr nonnull %3) #6
  br label %87

85:                                               ; preds = %78
  %86 = trunc i64 %59 to i32
  br label %87

87:                                               ; preds = %85, %84, %81, %78, %55, %1
  %88 = phi i32 [ 0, %1 ], [ 0, %84 ], [ 0, %55 ], [ %86, %85 ], [ %79, %78 ], [ 2, %81 ]
  call void @llvm.lifetime.end.p0(i64 8, ptr nonnull %2) #6
  ret i32 %88
}