; Function Attrs: fn_ret_thunk_extern nounwind null_pointer_is_valid
define dso_local noundef i32 @drm_connector_helper_tv_get_modes(ptr noundef %0) #0 align 16 {
  %2 = alloca i64, align 8
  %3 = load ptr, ptr %0, align 8
  %4 = getelementptr inbounds i8, ptr %3, i64 1176
  %5 = load ptr, ptr %4, align 8
  %6 = icmp eq ptr %5, null
  br i1 %6, label %.thread4, label %7

7:                                                ; preds = %1
  %8 = getelementptr inbounds i8, ptr %5, i64 84
  %9 = load i32, ptr %8, align 4
  %10 = icmp eq i32 %9, 0
  br i1 %10, label %.thread4, label %11

11:                                               ; preds = %7
  %12 = getelementptr inbounds i8, ptr %5, i64 88
  %13 = load ptr, ptr %12, align 8
  %14 = zext i32 %9 to i64
  br label %15

15:                                               ; preds = %15, %11
  %16 = phi i64 [ 0, %11 ], [ %23, %15 ]
  %17 = phi i32 [ 0, %11 ], [ %22, %15 ]
  %18 = getelementptr i64, ptr %13, i64 %16
  %19 = load i64, ptr %18, align 8
  %20 = shl nuw i64 1, %19
  %21 = trunc i64 %20 to i32
  %22 = or i32 %17, %21
  %23 = add nuw nsw i64 %16, 1
  %24 = icmp eq i64 %23, %14
  br i1 %24, label %25, label %15, !llvm.loop !53

25:                                               ; preds = %15
  %26 = and i32 %22, 23
  %27 = icmp eq i32 %26, 0
  %28 = and i32 %22, 104
  %29 = icmp eq i32 %28, 0
  %30 = or i1 %27, %29
  br i1 %30, label %50, label %31

31:                                               ; preds = %25
  call void @llvm.lifetime.start.p0(i64 8, ptr nonnull %2) #6
  store i64 0, ptr %2, align 8, !annotation !7
  %32 = getelementptr inbounds i8, ptr %0, i64 64
  %33 = call i32 @drm_object_property_get_default_value(ptr noundef %32, ptr noundef nonnull %5, ptr noundef nonnull %2) #6
  %34 = icmp eq i32 %33, 0
  br i1 %34, label %35, label %70

35:                                               ; preds = %31
  %36 = getelementptr inbounds i8, ptr %0, i64 1644
  %37 = load i8, ptr %36, align 4, !range !5, !noundef !6
  %38 = icmp eq i8 %37, 0
  br i1 %38, label %._crit_edge, label %39

._crit_edge:                                      ; preds = %35
  %.pre = load i64, ptr %2, align 8
  br label %43

39:                                               ; preds = %35
  %40 = getelementptr inbounds i8, ptr %0, i64 1640
  %41 = load i32, ptr %40, align 4
  %42 = zext i32 %41 to i64
  br label %43

43:                                               ; preds = %._crit_edge, %39
  %44 = phi i64 [ %.pre, %._crit_edge ], [ %42, %39 ]
  %45 = shl nuw i64 1, %44
  %46 = and i64 %45, 23
  %47 = icmp eq i64 %46, 0
  %48 = select i1 %47, i32 3, i32 0
  %49 = select i1 %47, i32 0, i32 3
  call void @llvm.lifetime.end.p0(i64 8, ptr nonnull %2) #6
  br label %52

50:                                               ; preds = %25
  %51 = and i32 %22, 127
  %brmerge.not = icmp eq i32 %51, 0
  %.mux = select i1 %27, i32 3, i32 0
  br i1 %brmerge.not, label %.thread4, label %52

52:                                               ; preds = %50, %43
  %.pre21 = phi i32 [ %49, %43 ], [ -1, %50 ]
  %53 = phi i32 [ %48, %43 ], [ %.mux, %50 ]
  br label %54

54:                                               ; preds = %66, %52
  %55 = phi i32 [ %.pre21, %66 ], [ %53, %52 ]
  %56 = phi i1 [ false, %66 ], [ true, %52 ]
  %57 = phi i32 [ 1, %66 ], [ 0, %52 ]
  switch i32 %55, label %.thread4 [
    i32 0, label %58
    i32 3, label %60
  ]

58:                                               ; preds = %54
  %59 = call ptr @drm_analog_tv_mode(ptr noundef %3, i32 noundef 0, i64 noundef 13500000, i32 noundef 720, i32 noundef 480, i1 noundef zeroext true) #6
  br label %62

60:                                               ; preds = %54
  %61 = call ptr @drm_analog_tv_mode(ptr noundef %3, i32 noundef 3, i64 noundef 13500000, i32 noundef 720, i32 noundef 576, i1 noundef zeroext true) #6
  br label %62

62:                                               ; preds = %60, %58
  %63 = phi ptr [ %59, %58 ], [ %61, %60 ]
  %64 = icmp eq ptr %63, null
  br i1 %64, label %.thread4, label %65

65:                                               ; preds = %62
  br i1 %56, label %66, label %.thread7

.thread7:                                         ; preds = %65
  call void @drm_mode_probed_add(ptr noundef %0, ptr noundef nonnull %63) #6
  br label %.thread4

66:                                               ; preds = %65
  %67 = getelementptr inbounds i8, ptr %63, i64 62
  %68 = load i8, ptr %67, align 2
  %69 = or i8 %68, 8
  store i8 %69, ptr %67, align 2
  call void @drm_mode_probed_add(ptr noundef %0, ptr noundef nonnull %63) #6
  br label %54, !llvm.loop !54

70:                                               ; preds = %31
  call void @llvm.lifetime.end.p0(i64 8, ptr nonnull %2) #6
  br label %.thread4

.thread4:                                         ; preds = %62, %54, %50, %7, %.thread7, %70, %1
  %71 = phi i32 [ 0, %1 ], [ 0, %70 ], [ 2, %.thread7 ], [ 0, %7 ], [ 0, %50 ], [ %57, %54 ], [ %57, %62 ]
  ret i32 %71
}